; Function Attrs: nounwind uwtable
define internal noalias noundef ptr @signal_default_int_handler(ptr readnone captures(none) %0, ptr noundef readonly captures(none) %1, i64 noundef %2) #2 {
  %or.cond = icmp eq i64 %2, 2
  br i1 %or.cond, label %6, label %4

4:                                                ; preds = %3
  %5 = tail call i32 @_PyArg_CheckPositional(ptr noundef nonnull @.str.4, i64 noundef %2, i64 noundef 2, i64 noundef 2) #15
  %.not = icmp eq i32 %5, 0
  br i1 %.not, label %13, label %6

6:                                                ; preds = %3, %4
  %7 = load ptr, ptr %1, align 8, !tbaa !176
  %8 = tail call i32 @PyLong_AsInt(ptr noundef %7) #15
  %9 = icmp eq i32 %8, -1
  br i1 %9, label %10, label %.sink.split

10:                                               ; preds = %6
  %11 = tail call ptr @PyErr_Occurred() #15
  %.not12 = icmp eq ptr %11, null
  br i1 %.not12, label %.sink.split, label %13

.sink.split:                                      ; preds = %10, %6
  %12 = load ptr, ptr @PyExc_KeyboardInterrupt, align 8, !tbaa !176
  tail call void @PyErr_SetNone(ptr noundef %12) #15
  br label %13

13:                                               ; preds = %.sink.split, %10, %4
  ret ptr null
}